target datalayout = "e-m:e-p270:32:32-p271:32:32-p272:64:64-i64:64-i128:128-f80:128-n8:16:32:64-S128"
target triple = "x86_64-pc-linux-gnu"

%struct.Abc_ZddMan_ = type { i32, i32, i32, i32, i32, i32, ptr, ptr, ptr, ptr, i32, i32, i64, ptr, ptr, ptr }
%struct.Abc_ZddObj_ = type { i32, i32, i32 }
%struct.Abc_ZddEnt_ = type { i32, i32, i32, i32 }

; Function Attrs: inlinehint nounwind uwtable
define internal i32 @Abc_ZddHash(i32 noundef %0, i32 noundef %1, i32 noundef %2) #2 {
  %4 = alloca i32, align 4
  %5 = alloca i32, align 4
  %6 = alloca i32, align 4
  store i32 %0, ptr %4, align 4, !tbaa !10
  store i32 %1, ptr %5, align 4, !tbaa !10
  store i32 %2, ptr %6, align 4, !tbaa !10
  %7 = load i32, ptr %4, align 4, !tbaa !10
  %8 = mul nsw i32 12582917, %7
  %9 = load i32, ptr %5, align 4, !tbaa !10
  %10 = mul nsw i32 4256249, %9
  %11 = add nsw i32 %8, %10
  %12 = load i32, ptr %6, align 4, !tbaa !10
  %13 = mul nsw i32 741457, %12
  %14 = add nsw i32 %11, %13
  ret i32 %14
}

; Function Attrs: inlinehint nounwind uwtable
define internal i32 @Abc_ZddCacheInsert(ptr noundef %0, i32 noundef %1, i32 noundef %2, i32 noundef %3, i32 noundef %4) #2 {
  %6 = alloca ptr, align 8
  %7 = alloca i32, align 4
  %8 = alloca i32, align 4
  %9 = alloca i32, align 4
  %10 = alloca i32, align 4
  %11 = alloca ptr, align 8
  store ptr %0, ptr %6, align 8, !tbaa !3
  store i32 %1, ptr %7, align 4, !tbaa !10
  store i32 %2, ptr %8, align 4, !tbaa !10
  store i32 %3, ptr %9, align 4, !tbaa !10
  store i32 %4, ptr %10, align 4, !tbaa !10
  call void @llvm.lifetime.start.p0(i64 8, ptr %11) #12
  %12 = load ptr, ptr %6, align 8, !tbaa !3
  %13 = getelementptr inbounds nuw %struct.Abc_ZddMan_, ptr %12, i32 0, i32 8
  %14 = load ptr, ptr %13, align 8, !tbaa !34
  %15 = load i32, ptr %7, align 4, !tbaa !10
  %16 = load i32, ptr %8, align 4, !tbaa !10
  %17 = load i32, ptr %9, align 4, !tbaa !10
  %18 = call i32 @Abc_ZddHash(i32 noundef %15, i32 noundef %16, i32 noundef %17)
  %19 = load ptr, ptr %6, align 8, !tbaa !3
  %20 = getelementptr inbounds nuw %struct.Abc_ZddMan_, ptr %19, i32 0, i32 5
  %21 = load i32, ptr %20, align 4, !tbaa !33
  %22 = and i32 %18, %21
  %23 = zext i32 %22 to i64
  %24 = getelementptr inbounds nuw %struct.Abc_ZddEnt_, ptr %14, i64 %23
  store ptr %24, ptr %11, align 8, !tbaa !47
  %25 = load i32, ptr %7, align 4, !tbaa !10
  %26 = load ptr, ptr %11, align 8, !tbaa !47
  %27 = getelementptr inbounds nuw %struct.Abc_ZddEnt_, ptr %26, i32 0, i32 0
  store i32 %25, ptr %27, align 4, !tbaa !48
  %28 = load i32, ptr %8, align 4, !tbaa !10
  %29 = load ptr, ptr %11, align 8, !tbaa !47
  %30 = getelementptr inbounds nuw %struct.Abc_ZddEnt_, ptr %29, i32 0, i32 1
  store i32 %28, ptr %30, align 4, !tbaa !50
  %31 = load i32, ptr %9, align 4, !tbaa !10
  %32 = load ptr, ptr %11, align 8, !tbaa !47
  %33 = getelementptr inbounds nuw %struct.Abc_ZddEnt_, ptr %32, i32 0, i32 2
  store i32 %31, ptr %33, align 4, !tbaa !51
  %34 = load i32, ptr %10, align 4, !tbaa !10
  %35 = load ptr, ptr %11, align 8, !tbaa !47
  %36 = getelementptr inbounds nuw %struct.Abc_ZddEnt_, ptr %35, i32 0, i32 3
  store i32 %34, ptr %36, align 4, !tbaa !52
  %37 = load ptr, ptr %6, align 8, !tbaa !3
  %38 = getelementptr inbounds nuw %struct.Abc_ZddMan_, ptr %37, i32 0, i32 11
  %39 = load i32, ptr %38, align 4, !tbaa !45
  %40 = add nsw i32 %39, 1
  store i32 %40, ptr %38, align 4, !tbaa !45
  %41 = load i32, ptr %10, align 4, !tbaa !10
  call void @llvm.lifetime.end.p0(i64 8, ptr %11) #12
  ret i32 %41
}

; Function Attrs: inlinehint nounwind uwtable
define internal ptr @Abc_ZddNode(ptr noundef %0, i32 noundef %1) #2 {
  %3 = alloca ptr, align 8
  %4 = alloca i32, align 4
  store ptr %0, ptr %3, align 8, !tbaa !3
  store i32 %1, ptr %4, align 4, !tbaa !10
  %5 = load ptr, ptr %3, align 8, !tbaa !3
  %6 = getelementptr inbounds nuw %struct.Abc_ZddMan_, ptr %5, i32 0, i32 9
  %7 = load ptr, ptr %6, align 8, !tbaa !22
  %8 = load i32, ptr %4, align 4, !tbaa !10
  %9 = sext i32 %8 to i64
  %10 = getelementptr inbounds %struct.Abc_ZddObj_, ptr %7, i64 %9
  ret ptr %10
}

; Function Attrs: inlinehint nounwind uwtable
define internal i32 @Abc_ZddCacheLookup(ptr noundef %0, i32 noundef %1, i32 noundef %2, i32 noundef %3) #2 {
  %5 = alloca ptr, align 8
  %6 = alloca i32, align 4
  %7 = alloca i32, align 4
  %8 = alloca i32, align 4
  %9 = alloca ptr, align 8
  store ptr %0, ptr %5, align 8, !tbaa !3
  store i32 %1, ptr %6, align 4, !tbaa !10
  store i32 %2, ptr %7, align 4, !tbaa !10
  store i32 %3, ptr %8, align 4, !tbaa !10
  call void @llvm.lifetime.start.p0(i64 8, ptr %9) #12
  %10 = load ptr, ptr %5, align 8, !tbaa !3
  %11 = getelementptr inbounds nuw %struct.Abc_ZddMan_, ptr %10, i32 0, i32 8
  %12 = load ptr, ptr %11, align 8, !tbaa !34
  %13 = load i32, ptr %6, align 4, !tbaa !10
  %14 = load i32, ptr %7, align 4, !tbaa !10
  %15 = load i32, ptr %8, align 4, !tbaa !10
  %16 = call i32 @Abc_ZddHash(i32 noundef %13, i32 noundef %14, i32 noundef %15)
  %17 = load ptr, ptr %5, align 8, !tbaa !3
  %18 = getelementptr inbounds nuw %struct.Abc_ZddMan_, ptr %17, i32 0, i32 5
  %19 = load i32, ptr %18, align 4, !tbaa !33
  %20 = and i32 %16, %19
  %21 = zext i32 %20 to i64
  %22 = getelementptr inbounds nuw %struct.Abc_ZddEnt_, ptr %12, i64 %21
  store ptr %22, ptr %9, align 8, !tbaa !47
  %23 = load ptr, ptr %5, align 8, !tbaa !3
  %24 = getelementptr inbounds nuw %struct.Abc_ZddMan_, ptr %23, i32 0, i32 10
  %25 = load i32, ptr %24, align 8, !tbaa !44
  %26 = add nsw i32 %25, 1
  store i32 %26, ptr %24, align 8, !tbaa !44
  %27 = load ptr, ptr %9, align 8, !tbaa !47
  %28 = getelementptr inbounds nuw %struct.Abc_ZddEnt_, ptr %27, i32 0, i32 0
  %29 = load i32, ptr %28, align 4, !tbaa !48
  %30 = load i32, ptr %6, align 4, !tbaa !10
  %31 = icmp eq i32 %29, %30
  br i1 %31, label %32, label %48

32:                                               ; preds = %4
  %33 = load ptr, ptr %9, align 8, !tbaa !47
  %34 = getelementptr inbounds nuw %struct.Abc_ZddEnt_, ptr %33, i32 0, i32 1
  %35 = load i32, ptr %34, align 4, !tbaa !50
  %36 = load i32, ptr %7, align 4, !tbaa !10
  %37 = icmp eq i32 %35, %36
  br i1 %37, label %38, label %48

38:                                               ; preds = %32
  %39 = load ptr, ptr %9, align 8, !tbaa !47
  %40 = getelementptr inbounds nuw %struct.Abc_ZddEnt_, ptr %39, i32 0, i32 2
  %41 = load i32, ptr %40, align 4, !tbaa !51
  %42 = load i32, ptr %8, align 4, !tbaa !10
  %43 = icmp eq i32 %41, %42
  br i1 %43, label %44, label %48

44:                                               ; preds = %38
  %45 = load ptr, ptr %9, align 8, !tbaa !47
  %46 = getelementptr inbounds nuw %struct.Abc_ZddEnt_, ptr %45, i32 0, i32 3
  %47 = load i32, ptr %46, align 4, !tbaa !52
  br label %49

48:                                               ; preds = %38, %32, %4
  br label %49

49:                                               ; preds = %48, %44
  %50 = phi i32 [ %47, %44 ], [ -1, %48 ]
  call void @llvm.lifetime.end.p0(i64 8, ptr %9) #12
  ret i32 %50
}

; Function Attrs: nounwind uwtable
define i32 @Abc_ZddDiff(ptr noundef %0, i32 noundef %1, i32 noundef %2) #0 {
  %4 = alloca i32, align 4
  %5 = alloca ptr, align 8
  %6 = alloca i32, align 4
  %7 = alloca i32, align 4
  %8 = alloca ptr, align 8
  %9 = alloca ptr, align 8
  %10 = alloca i32, align 4
  %11 = alloca i32, align 4
  %12 = alloca i32, align 4
  %13 = alloca i32, align 4
  store ptr %0, ptr %5, align 8, !tbaa !3
  store i32 %1, ptr %6, align 4, !tbaa !10
  store i32 %2, ptr %7, align 4, !tbaa !10
  call void @llvm.lifetime.start.p0(i64 8, ptr %8) #12
  call void @llvm.lifetime.start.p0(i64 8, ptr %9) #12
  call void @llvm.lifetime.start.p0(i64 4, ptr %10) #12
  call void @llvm.lifetime.start.p0(i64 4, ptr %11) #12
  call void @llvm.lifetime.start.p0(i64 4, ptr %12) #12
  %14 = load i32, ptr %6, align 4, !tbaa !10
  %15 = icmp eq i32 %14, 0
  br i1 %15, label %16, label %17

16:                                               ; preds = %3
  store i32 0, ptr %4, align 4
  store i32 1, ptr %13, align 4
  br label %111

17:                                               ; preds = %3
  %18 = load i32, ptr %7, align 4, !tbaa !10
  %19 = icmp eq i32 %18, 0
  br i1 %19, label %20, label %22

20:                                               ; preds = %17
  %21 = load i32, ptr %6, align 4, !tbaa !10
  store i32 %21, ptr %4, align 4
  store i32 1, ptr %13, align 4
  br label %111

22:                                               ; preds = %17
  %23 = load i32, ptr %6, align 4, !tbaa !10
  %24 = load i32, ptr %7, align 4, !tbaa !10
  %25 = icmp eq i32 %23, %24
  br i1 %25, label %26, label %27

26:                                               ; preds = %22
  store i32 0, ptr %4, align 4
  store i32 1, ptr %13, align 4
  br label %111

27:                                               ; preds = %22
  %28 = load ptr, ptr %5, align 8, !tbaa !3
  %29 = load i32, ptr %6, align 4, !tbaa !10
  %30 = load i32, ptr %7, align 4, !tbaa !10
  %31 = call i32 @Abc_ZddCacheLookup(ptr noundef %28, i32 noundef %29, i32 noundef %30, i32 noundef 1)
  store i32 %31, ptr %12, align 4, !tbaa !10
  %32 = icmp sge i32 %31, 0
  br i1 %32, label %33, label %35

33:                                               ; preds = %27
  %34 = load i32, ptr %12, align 4, !tbaa !10
  store i32 %34, ptr %4, align 4
  store i32 1, ptr %13, align 4
  br label %111

35:                                               ; preds = %27
  %36 = load ptr, ptr %5, align 8, !tbaa !3
  %37 = load i32, ptr %6, align 4, !tbaa !10
  %38 = call ptr @Abc_ZddNode(ptr noundef %36, i32 noundef %37)
  store ptr %38, ptr %8, align 8, !tbaa !46
  %39 = load ptr, ptr %5, align 8, !tbaa !3
  %40 = load i32, ptr %7, align 4, !tbaa !10
  %41 = call ptr @Abc_ZddNode(ptr noundef %39, i32 noundef %40)
  store ptr %41, ptr %9, align 8, !tbaa !46
  %42 = load ptr, ptr %8, align 8, !tbaa !46
  %43 = load i32, ptr %42, align 4
  %44 = and i32 %43, 2147483647
  %45 = load ptr, ptr %9, align 8, !tbaa !46
  %46 = load i32, ptr %45, align 4
  %47 = and i32 %46, 2147483647
  %48 = icmp slt i32 %44, %47
  br i1 %48, label %49, label %65

49:                                               ; preds = %35
  %50 = load ptr, ptr %5, align 8, !tbaa !3
  %51 = load ptr, ptr %8, align 8, !tbaa !46
  %52 = getelementptr inbounds nuw %struct.Abc_ZddObj_, ptr %51, i32 0, i32 2
  %53 = load i32, ptr %52, align 4, !tbaa !25
  %54 = load i32, ptr %7, align 4, !tbaa !10
  %55 = call i32 @Abc_ZddDiff(ptr noundef %50, i32 noundef %53, i32 noundef %54)
  store i32 %55, ptr %10, align 4, !tbaa !10
  %56 = load ptr, ptr %5, align 8, !tbaa !3
  %57 = load ptr, ptr %8, align 8, !tbaa !46
  %58 = load i32, ptr %57, align 4
  %59 = and i32 %58, 2147483647
  %60 = load ptr, ptr %8, align 8, !tbaa !46
  %61 = getelementptr inbounds nuw %struct.Abc_ZddObj_, ptr %60, i32 0, i32 1
  %62 = load i32, ptr %61, align 4, !tbaa !23
  %63 = load i32, ptr %10, align 4, !tbaa !10
  %64 = call i32 @Abc_ZddUniqueCreate(ptr noundef %56, i32 noundef %59, i32 noundef %62, i32 noundef %63)
  store i32 %64, ptr %12, align 4, !tbaa !10
  br label %105

65:                                               ; preds = %35
  %66 = load ptr, ptr %8, align 8, !tbaa !46
  %67 = load i32, ptr %66, align 4
  %68 = and i32 %67, 2147483647
  %69 = load ptr, ptr %9, align 8, !tbaa !46
  %70 = load i32, ptr %69, align 4
  %71 = and i32 %70, 2147483647
  %72 = icmp sgt i32 %68, %71
  br i1 %72, label %73, label %80

73:                                               ; preds = %65
  %74 = load ptr, ptr %5, align 8, !tbaa !3
  %75 = load i32, ptr %6, align 4, !tbaa !10
  %76 = load ptr, ptr %9, align 8, !tbaa !46
  %77 = getelementptr inbounds nuw %struct.Abc_ZddObj_, ptr %76, i32 0, i32 2
  %78 = load i32, ptr %77, align 4, !tbaa !25
  %79 = call i32 @Abc_ZddDiff(ptr noundef %74, i32 noundef %75, i32 noundef %78)
  store i32 %79, ptr %12, align 4, !tbaa !10
  br label %104

80:                                               ; preds = %65
  %81 = load ptr, ptr %5, align 8, !tbaa !3
  %82 = load ptr, ptr %8, align 8, !tbaa !46
  %83 = getelementptr inbounds nuw %struct.Abc_ZddObj_, ptr %82, i32 0, i32 2
  %84 = load i32, ptr %83, align 4, !tbaa !25
  %85 = load ptr, ptr %9, align 8, !tbaa !46
  %86 = getelementptr inbounds nuw %struct.Abc_ZddObj_, ptr %85, i32 0, i32 2
  %87 = load i32, ptr %86, align 4, !tbaa !25
  %88 = call i32 @Abc_ZddDiff(ptr noundef %81, i32 noundef %84, i32 noundef %87)
  store i32 %88, ptr %10, align 4, !tbaa !10
  %89 = load ptr, ptr %5, align 8, !tbaa !3
  %90 = load ptr, ptr %8, align 8, !tbaa !46
  %91 = getelementptr inbounds nuw %struct.Abc_ZddObj_, ptr %90, i32 0, i32 1
  %92 = load i32, ptr %91, align 4, !tbaa !23
  %93 = load ptr, ptr %9, align 8, !tbaa !46
  %94 = getelementptr inbounds nuw %struct.Abc_ZddObj_, ptr %93, i32 0, i32 1
  %95 = load i32, ptr %94, align 4, !tbaa !23
  %96 = call i32 @Abc_ZddDiff(ptr noundef %89, i32 noundef %92, i32 noundef %95)
  store i32 %96, ptr %11, align 4, !tbaa !10
  %97 = load ptr, ptr %5, align 8, !tbaa !3
  %98 = load ptr, ptr %8, align 8, !tbaa !46
  %99 = load i32, ptr %98, align 4
  %100 = and i32 %99, 2147483647
  %101 = load i32, ptr %11, align 4, !tbaa !10
  %102 = load i32, ptr %10, align 4, !tbaa !10
  %103 = call i32 @Abc_ZddUniqueCreate(ptr noundef %97, i32 noundef %100, i32 noundef %101, i32 noundef %102)
  store i32 %103, ptr %12, align 4, !tbaa !10
  br label %104

104:                                              ; preds = %80, %73
  br label %105

105:                                              ; preds = %104, %49
  %106 = load ptr, ptr %5, align 8, !tbaa !3
  %107 = load i32, ptr %6, align 4, !tbaa !10
  %108 = load i32, ptr %7, align 4, !tbaa !10
  %109 = load i32, ptr %12, align 4, !tbaa !10
  %110 = call i32 @Abc_ZddCacheInsert(ptr noundef %106, i32 noundef %107, i32 noundef %108, i32 noundef 1, i32 noundef %109)
  store i32 %110, ptr %4, align 4
  store i32 1, ptr %13, align 4
  br label %111

111:                                              ; preds = %105, %33, %26, %20, %16
  call void @llvm.lifetime.end.p0(i64 4, ptr %12) #12
  call void @llvm.lifetime.end.p0(i64 4, ptr %11) #12
  call void @llvm.lifetime.end.p0(i64 4, ptr %10) #12
  call void @llvm.lifetime.end.p0(i64 8, ptr %9) #12
  call void @llvm.lifetime.end.p0(i64 8, ptr %8) #12
  %112 = load i32, ptr %4, align 4
  ret i32 %112
}