; Function Attrs: nofree nounwind uwtable
define i32 @Abc_ZddDiff(ptr noundef %0, i32 noundef %1, i32 noundef %2) local_unnamed_addr #0 {
  %4 = icmp eq i32 %1, 0
  br i1 %4, label %149, label %5

5:                                                ; preds = %3
  %6 = icmp eq i32 %2, 0
  br i1 %6, label %149, label %7

7:                                                ; preds = %5
  %8 = icmp eq i32 %1, %2
  br i1 %8, label %149, label %9

9:                                                ; preds = %7
  %10 = getelementptr inbounds nuw i8, ptr %0, i64 40
  %11 = load ptr, ptr %10, align 8, !tbaa !31
  %12 = mul nsw i32 %1, 12582917
  %13 = mul nsw i32 %2, 4256249
  %14 = add i32 %12, 741457
  %15 = add i32 %14, %13
  %16 = getelementptr inbounds nuw i8, ptr %0, i64 20
  %17 = load i32, ptr %16, align 4, !tbaa !30
  %18 = and i32 %17, %15
  %19 = zext i32 %18 to i64
  %20 = getelementptr inbounds nuw %struct.Abc_ZddEnt_, ptr %11, i64 %19
  %21 = getelementptr inbounds nuw i8, ptr %0, i64 56
  %22 = load i32, ptr %21, align 8, !tbaa !40
  %23 = add nsw i32 %22, 1
  store i32 %23, ptr %21, align 8, !tbaa !40
  %24 = load i32, ptr %20, align 4, !tbaa !42
  %25 = icmp eq i32 %24, %1
  br i1 %25, label %26, label %Abc_ZddCacheLookup.exit.thread

26:                                               ; preds = %9
  %27 = getelementptr inbounds nuw i8, ptr %20, i64 4
  %28 = load i32, ptr %27, align 4, !tbaa !44
  %29 = icmp eq i32 %28, %2
  br i1 %29, label %30, label %Abc_ZddCacheLookup.exit.thread

30:                                               ; preds = %26
  %31 = getelementptr inbounds nuw i8, ptr %20, i64 8
  %32 = load i32, ptr %31, align 4, !tbaa !45
  %33 = icmp eq i32 %32, 1
  br i1 %33, label %Abc_ZddCacheLookup.exit, label %Abc_ZddCacheLookup.exit.thread

Abc_ZddCacheLookup.exit:                          ; preds = %30
  %34 = getelementptr inbounds nuw i8, ptr %20, i64 12
  %35 = load i32, ptr %34, align 4, !tbaa !46
  %36 = icmp sgt i32 %35, -1
  br i1 %36, label %149, label %Abc_ZddCacheLookup.exit.thread

Abc_ZddCacheLookup.exit.thread:                   ; preds = %9, %26, %30, %Abc_ZddCacheLookup.exit
  %37 = getelementptr i8, ptr %0, i64 48
  %.val = load ptr, ptr %37, align 8, !tbaa !18
  %38 = sext i32 %1 to i64
  %39 = getelementptr inbounds %struct.Abc_ZddObj_, ptr %.val, i64 %38
  %40 = sext i32 %2 to i64
  %41 = getelementptr inbounds %struct.Abc_ZddObj_, ptr %.val, i64 %40
  %42 = load i32, ptr %39, align 4
  %43 = and i32 %42, 2147483647
  %44 = load i32, ptr %41, align 4
  %45 = and i32 %44, 2147483647
  %46 = icmp samesign ult i32 %43, %45
  br i1 %46, label %47, label %118

47:                                               ; preds = %Abc_ZddCacheLookup.exit.thread
  %48 = getelementptr inbounds nuw i8, ptr %39, i64 8
  %49 = load i32, ptr %48, align 4, !tbaa !21
  %50 = tail call i32 @Abc_ZddDiff(ptr noundef nonnull %0, i32 noundef %49, i32 noundef %2)
  %51 = load i32, ptr %39, align 4
  %52 = and i32 %51, 2147483647
  %53 = getelementptr inbounds nuw i8, ptr %39, i64 4
  %54 = load i32, ptr %53, align 4, !tbaa !19
  %55 = icmp eq i32 %54, 0
  br i1 %55, label %Abc_ZddUniqueCreate.exit, label %56

56:                                               ; preds = %47
  %57 = getelementptr inbounds nuw i8, ptr %0, i64 24
  %58 = load ptr, ptr %57, align 8, !tbaa !10
  %59 = mul nuw nsw i32 %52, 12582917
  %60 = mul nsw i32 %54, 4256249
  %61 = mul nsw i32 %50, 741457
  %62 = add i32 %59, %61
  %63 = add i32 %62, %60
  %64 = getelementptr inbounds nuw i8, ptr %0, i64 16
  %65 = load i32, ptr %64, align 8, !tbaa !17
  %66 = and i32 %65, %63
  %67 = zext i32 %66 to i64
  %68 = getelementptr inbounds nuw i32, ptr %58, i64 %67
  %69 = load i32, ptr %68, align 4, !tbaa !3
  %.not41.i = icmp eq i32 %69, 0
  br i1 %.not41.i, label %._crit_edge.i, label %.lr.ph.i

.lr.ph.i:                                         ; preds = %56
  %70 = load ptr, ptr %37, align 8, !tbaa !18
  %71 = getelementptr inbounds nuw i8, ptr %0, i64 32
  br label %72

72:                                               ; preds = %87, %.lr.ph.i
  %73 = phi i32 [ %69, %.lr.ph.i ], [ %90, %87 ]
  %74 = sext i32 %73 to i64
  %75 = getelementptr inbounds %struct.Abc_ZddObj_, ptr %70, i64 %74
  %76 = load i32, ptr %75, align 4
  %77 = and i32 %76, 2147483647
  %78 = icmp eq i32 %77, %52
  br i1 %78, label %79, label %87

79:                                               ; preds = %72
  %80 = getelementptr inbounds nuw i8, ptr %75, i64 4
  %81 = load i32, ptr %80, align 4, !tbaa !19
  %82 = icmp eq i32 %81, %54
  br i1 %82, label %83, label %87

83:                                               ; preds = %79
  %84 = getelementptr inbounds nuw i8, ptr %75, i64 8
  %85 = load i32, ptr %84, align 4, !tbaa !21
  %86 = icmp eq i32 %85, %50
  br i1 %86, label %Abc_ZddUniqueCreate.exit, label %87

87:                                               ; preds = %83, %79, %72
  %88 = load ptr, ptr %71, align 8, !tbaa !22
  %89 = getelementptr inbounds i32, ptr %88, i64 %74
  %90 = load i32, ptr %89, align 4, !tbaa !3
  %.not.i = icmp eq i32 %90, 0
  br i1 %.not.i, label %._crit_edge.i.loopexit, label %72, !llvm.loop !23

._crit_edge.i.loopexit:                           ; preds = %87
  %91 = getelementptr inbounds i32, ptr %88, i64 %74
  br label %._crit_edge.i

._crit_edge.i:                                    ; preds = %._crit_edge.i.loopexit, %56
  %.0.lcssa.i = phi ptr [ %68, %56 ], [ %91, %._crit_edge.i.loopexit ]
  %92 = getelementptr inbounds nuw i8, ptr %0, i64 4
  %93 = load i32, ptr %92, align 4, !tbaa !24
  %94 = getelementptr inbounds nuw i8, ptr %0, i64 8
  %95 = load i32, ptr %94, align 8, !tbaa !25
  %96 = icmp eq i32 %93, %95
  br i1 %96, label %97, label %101

97:                                               ; preds = %._crit_edge.i
  %98 = tail call i32 (ptr, ...) @printf(ptr noundef nonnull dereferenceable(1) @.str.16, i32 noundef %93)
  %99 = load ptr, ptr @stdout, align 8, !tbaa !26
  %100 = tail call i32 @fflush(ptr noundef %99)
  %.pre.i = load i32, ptr %92, align 4, !tbaa !24
  br label %101

101:                                              ; preds = %97, %._crit_edge.i
  %102 = phi i32 [ %.pre.i, %97 ], [ %93, %._crit_edge.i ]
  %103 = add nsw i32 %102, 1
  store i32 %103, ptr %92, align 4, !tbaa !24
  store i32 %102, ptr %.0.lcssa.i, align 4, !tbaa !3
  %104 = load ptr, ptr %37, align 8, !tbaa !18
  %105 = sext i32 %102 to i64
  %106 = getelementptr inbounds %struct.Abc_ZddObj_, ptr %104, i64 %105
  %107 = load i32, ptr %106, align 4
  %108 = and i32 %107, -2147483648
  %109 = or disjoint i32 %108, %52
  store i32 %109, ptr %106, align 4
  %110 = load ptr, ptr %37, align 8, !tbaa !18
  %111 = load i32, ptr %.0.lcssa.i, align 4, !tbaa !3
  %112 = sext i32 %111 to i64
  %113 = getelementptr inbounds %struct.Abc_ZddObj_, ptr %110, i64 %112, i32 1
  store i32 %54, ptr %113, align 4, !tbaa !19
  %114 = load i32, ptr %.0.lcssa.i, align 4, !tbaa !3
  %115 = sext i32 %114 to i64
  %116 = getelementptr inbounds %struct.Abc_ZddObj_, ptr %110, i64 %115, i32 2
  store i32 %50, ptr %116, align 4, !tbaa !21
  %117 = load i32, ptr %.0.lcssa.i, align 4, !tbaa !3
  br label %Abc_ZddUniqueCreate.exit

118:                                              ; preds = %Abc_ZddCacheLookup.exit.thread
  %119 = icmp samesign ugt i32 %43, %45
  br i1 %119, label %120, label %124

120:                                              ; preds = %118
  %121 = getelementptr inbounds nuw i8, ptr %41, i64 8
  %122 = load i32, ptr %121, align 4, !tbaa !21
  %123 = tail call i32 @Abc_ZddDiff(ptr noundef nonnull %0, i32 noundef %1, i32 noundef %122)
  br label %Abc_ZddUniqueCreate.exit

124:                                              ; preds = %118
  %125 = getelementptr inbounds nuw i8, ptr %39, i64 8
  %126 = load i32, ptr %125, align 4, !tbaa !21
  %127 = getelementptr inbounds nuw i8, ptr %41, i64 8
  %128 = load i32, ptr %127, align 4, !tbaa !21
  %129 = tail call i32 @Abc_ZddDiff(ptr noundef nonnull %0, i32 noundef %126, i32 noundef %128)
  %130 = getelementptr inbounds nuw i8, ptr %39, i64 4
  %131 = load i32, ptr %130, align 4, !tbaa !19
  %132 = getelementptr inbounds nuw i8, ptr %41, i64 4
  %133 = load i32, ptr %132, align 4, !tbaa !19
  %134 = tail call i32 @Abc_ZddDiff(ptr noundef nonnull %0, i32 noundef %131, i32 noundef %133)
  %135 = load i32, ptr %39, align 4
  %136 = and i32 %135, 2147483647
  %137 = tail call fastcc i32 @Abc_ZddUniqueCreate(ptr noundef nonnull %0, i32 noundef %136, i32 noundef %134, i32 noundef %129)
  br label %Abc_ZddUniqueCreate.exit

Abc_ZddUniqueCreate.exit:                         ; preds = %83, %101, %47, %120, %124
  %.0 = phi i32 [ %123, %120 ], [ %137, %124 ], [ %50, %47 ], [ %117, %101 ], [ %73, %83 ]
  %138 = load ptr, ptr %10, align 8, !tbaa !31
  %139 = load i32, ptr %16, align 4, !tbaa !30
  %140 = and i32 %139, %15
  %141 = zext i32 %140 to i64
  %142 = getelementptr inbounds nuw %struct.Abc_ZddEnt_, ptr %138, i64 %141
  store i32 %1, ptr %142, align 4, !tbaa !42
  %143 = getelementptr inbounds nuw i8, ptr %142, i64 4
  store i32 %2, ptr %143, align 4, !tbaa !44
  %144 = getelementptr inbounds nuw i8, ptr %142, i64 8
  store i32 1, ptr %144, align 4, !tbaa !45
  %145 = getelementptr inbounds nuw i8, ptr %142, i64 12
  store i32 %.0, ptr %145, align 4, !tbaa !46
  %146 = getelementptr inbounds nuw i8, ptr %0, i64 60
  %147 = load i32, ptr %146, align 4, !tbaa !41
  %148 = add nsw i32 %147, 1
  store i32 %148, ptr %146, align 4, !tbaa !41
  br label %149

149:                                              ; preds = %Abc_ZddCacheLookup.exit, %7, %5, %3, %Abc_ZddUniqueCreate.exit
  %.041 = phi i32 [ %.0, %Abc_ZddUniqueCreate.exit ], [ 0, %3 ], [ %1, %5 ], [ 0, %7 ], [ %35, %Abc_ZddCacheLookup.exit ]
  ret i32 %.041
}